; ModuleID = '45/1643.c'
source_filename = "45/1643.c"
target datalayout = "e-m:e-p270:32:32-p271:32:32-p272:64:64-i64:64-f80:128-n8:16:32:64-S128"
target triple = "x86_64-pc-linux-gnu"

@.str = private unnamed_addr constant [3 x i8] c"%s\00", align 1
@.str.1 = private unnamed_addr constant [3 x i8] c"%d\00", align 1

; Function Attrs: noinline nounwind uwtable
define dso_local i32 @main() #0 {
  %1 = alloca i32, align 4
  %2 = alloca [256 x i8], align 16
  %3 = alloca [256 x i8], align 16
  %4 = alloca [256 x i8], align 16
  %5 = alloca [256 x i8], align 16
  %6 = alloca i32, align 4
  %7 = alloca i32, align 4
  %8 = alloca i32, align 4
  %9 = alloca i32, align 4
  %10 = alloca i32, align 4
  %11 = alloca i32, align 4
  store i32 0, i32* %1, align 4
  store i32 100, i32* %11, align 4
  %12 = getelementptr inbounds [256 x i8], [256 x i8]* %4, i64 0, i64 0
  %13 = call i32 (i8*, ...) @__isoc99_scanf(i8* getelementptr inbounds ([3 x i8], [3 x i8]* @.str, i64 0, i64 0), i8* %12)
  %14 = getelementptr inbounds [256 x i8], [256 x i8]* %3, i64 0, i64 0
  %15 = call i32 (i8*, ...) @__isoc99_scanf(i8* getelementptr inbounds ([3 x i8], [3 x i8]* @.str, i64 0, i64 0), i8* %14)
  %16 = getelementptr inbounds [256 x i8], [256 x i8]* %3, i64 0, i64 0
  %17 = call i64 @strlen(i8* %16) #4
  %18 = trunc i64 %17 to i32
  store i32 %18, i32* %6, align 4
  %19 = getelementptr inbounds [256 x i8], [256 x i8]* %4, i64 0, i64 0
  %20 = call i64 @strlen(i8* %19) #4
  %21 = trunc i64 %20 to i32
  store i32 %21, i32* %7, align 4
  %22 = getelementptr inbounds [256 x i8], [256 x i8]* %5, i64 0, i64 0
  %23 = call i64 @strlen(i8* %22) #4
  %24 = trunc i64 %23 to i32
  store i32 %24, i32* %8, align 4
  store i32 0, i32* %9, align 4
  br label %25

25:                                               ; preds = %61, %0
  %26 = load i32, i32* %9, align 4
  %27 = load i32, i32* %6, align 4
  %28 = load i32, i32* %7, align 4
  %29 = sub nsw i32 %27, %28
  %30 = add nsw i32 %29, 1
  %31 = icmp slt i32 %26, %30
  br i1 %31, label %32, label %64

32:                                               ; preds = %25
  %33 = getelementptr inbounds [256 x i8], [256 x i8]* %2, i64 0, i64 0
  %34 = getelementptr inbounds [256 x i8], [256 x i8]* %3, i64 0, i64 0
  %35 = call i8* @strcpy(i8* %33, i8* %34) #5
  store i32 0, i32* %10, align 4
  br label %36

36:                                               ; preds = %50, %32
  %37 = load i32, i32* %10, align 4
  %38 = load i32, i32* %7, align 4
  %39 = icmp slt i32 %37, %38
  br i1 %39, label %40, label %53

40:                                               ; preds = %36
  %41 = load i32, i32* %10, align 4
  %42 = sext i32 %41 to i64
  %43 = getelementptr inbounds [256 x i8], [256 x i8]* %4, i64 0, i64 %42
  %44 = load i8, i8* %43, align 1
  %45 = load i32, i32* %9, align 4
  %46 = load i32, i32* %10, align 4
  %47 = add nsw i32 %45, %46
  %48 = sext i32 %47 to i64
  %49 = getelementptr inbounds [256 x i8], [256 x i8]* %2, i64 0, i64 %48
  store i8 %44, i8* %49, align 1
  br label %50

50:                                               ; preds = %40
  %51 = load i32, i32* %10, align 4
  %52 = add nsw i32 %51, 1
  store i32 %52, i32* %10, align 4
  br label %36

53:                                               ; preds = %36
  %54 = getelementptr inbounds [256 x i8], [256 x i8]* %2, i64 0, i64 0
  %55 = getelementptr inbounds [256 x i8], [256 x i8]* %3, i64 0, i64 0
  %56 = call i32 @strcmp(i8* %54, i8* %55) #4
  %57 = icmp eq i32 %56, 0
  br i1 %57, label %58, label %60

58:                                               ; preds = %53
  %59 = load i32, i32* %9, align 4
  store i32 %59, i32* %11, align 4
  br label %64

60:                                               ; preds = %53
  br label %61

61:                                               ; preds = %60
  %62 = load i32, i32* %9, align 4
  %63 = add nsw i32 %62, 1
  store i32 %63, i32* %9, align 4
  br label %25

64:                                               ; preds = %58, %25
  %65 = load i32, i32* %11, align 4
  %66 = call i32 (i8*, ...) @printf(i8* getelementptr inbounds ([3 x i8], [3 x i8]* @.str.1, i64 0, i64 0), i32 %65)
  ret i32 0
}

declare dso_local i32 @__isoc99_scanf(i8*, ...) #1

; Function Attrs: nounwind readonly
declare dso_local i64 @strlen(i8*) #2

; Function Attrs: nounwind
declare dso_local i8* @strcpy(i8*, i8*) #3

; Function Attrs: nounwind readonly
declare dso_local i32 @strcmp(i8*, i8*) #2

declare dso_local i32 @printf(i8*, ...) #1


!llvm.module.flags = !{!0}
!llvm.ident = !{!1}

!0 = !{i32 1, !"wchar_size", i32 4}
!1 = !{!"clang version 10.0.0-4ubuntu1 "}
