; ModuleID = 'source-C-CXX/44/1643.c'
source_filename = "source-C-CXX/44/1643.c"
target datalayout = "e-m:e-p270:32:32-p271:32:32-p272:64:64-i64:64-f80:128-n8:16:32:64-S128"
target triple = "x86_64-pc-linux-gnu"

@.str = private unnamed_addr constant [3 x i8] c"%s\00", align 1
@.str.1 = private unnamed_addr constant [3 x i8] c"%d\00", align 1

; Function Attrs: nofree nounwind sspstrong uwtable
define dso_local i32 @main() local_unnamed_addr #0 {
  %1 = alloca [256 x i8], align 16
  %2 = alloca [256 x i8], align 16
  %3 = alloca [256 x i8], align 16
  %4 = getelementptr inbounds [256 x i8], [256 x i8]* %3, i64 0, i64 0
  %5 = getelementptr inbounds [256 x i8], [256 x i8]* %1, i64 0, i64 0
  call void @llvm.lifetime.start.p0i8(i64 256, i8* nonnull %5) #6
  %6 = getelementptr inbounds [256 x i8], [256 x i8]* %2, i64 0, i64 0
  call void @llvm.lifetime.start.p0i8(i64 256, i8* nonnull %6) #6
  %7 = getelementptr inbounds [256 x i8], [256 x i8]* %3, i64 0, i64 0
  call void @llvm.lifetime.start.p0i8(i64 256, i8* nonnull %7) #6
  %8 = call i32 (i8*, ...) @__isoc99_scanf(i8* getelementptr inbounds ([3 x i8], [3 x i8]* @.str, i64 0, i64 0), i8* nonnull %7)
  %9 = call i32 (i8*, ...) @__isoc99_scanf(i8* getelementptr inbounds ([3 x i8], [3 x i8]* @.str, i64 0, i64 0), i8* nonnull %6)
  %10 = call i64 @strlen(i8* noundef nonnull %6) #7
  %11 = trunc i64 %10 to i32
  %12 = call i64 @strlen(i8* noundef nonnull %7) #7
  %13 = trunc i64 %12 to i32
  %14 = icmp slt i32 %11, %13
  br i1 %14, label %44, label %15

15:                                               ; preds = %0
  %16 = icmp sgt i32 %13, 0
  br i1 %16, label %20, label %17

17:                                               ; preds = %15
  %18 = add i32 %11, 1
  %19 = sub i32 %18, %13
  br label %36

20:                                               ; preds = %15
  %21 = and i64 %12, 4294967295
  %22 = add i64 %10, 1
  %23 = sub i64 %22, %12
  %24 = and i64 %23, 4294967295
  br label %25

25:                                               ; preds = %20, %32
  %26 = phi i64 [ 0, %20 ], [ %34, %32 ]
  %27 = phi i32 [ 0, %20 ], [ %33, %32 ]
  %28 = getelementptr [256 x i8], [256 x i8]* %1, i64 0, i64 %26
  %29 = call i8* @strcpy(i8* noundef nonnull %5, i8* noundef nonnull %6) #6
  call void @llvm.memcpy.p0i8.p0i8.i64(i8* align 1 %28, i8* nonnull align 16 %4, i64 %21, i1 false)
  %30 = call i32 @strcmp(i8* noundef nonnull %5, i8* noundef nonnull %6) #7
  %31 = icmp eq i32 %30, 0
  br i1 %31, label %44, label %32

32:                                               ; preds = %25
  %33 = add nuw nsw i32 %27, 1
  %34 = add nuw nsw i64 %26, 1
  %35 = icmp eq i64 %34, %24
  br i1 %35, label %44, label %25, !llvm.loop !5

36:                                               ; preds = %17, %41
  %37 = phi i32 [ %42, %41 ], [ 0, %17 ]
  %38 = call i8* @strcpy(i8* noundef nonnull %5, i8* noundef nonnull %6) #6
  %39 = call i32 @strcmp(i8* noundef nonnull %5, i8* noundef nonnull %6) #7
  %40 = icmp eq i32 %39, 0
  br i1 %40, label %44, label %41

41:                                               ; preds = %36
  %42 = add nuw i32 %37, 1
  %43 = icmp eq i32 %42, %19
  br i1 %43, label %44, label %36, !llvm.loop !5

44:                                               ; preds = %41, %36, %32, %25, %0
  %45 = phi i32 [ 100, %0 ], [ %27, %25 ], [ 100, %32 ], [ %37, %36 ], [ 100, %41 ]
  %46 = call i32 (i8*, ...) @printf(i8* nonnull dereferenceable(1) getelementptr inbounds ([3 x i8], [3 x i8]* @.str.1, i64 0, i64 0), i32 %45)
  call void @llvm.lifetime.end.p0i8(i64 256, i8* nonnull %7) #6
  call void @llvm.lifetime.end.p0i8(i64 256, i8* nonnull %6) #6
  call void @llvm.lifetime.end.p0i8(i64 256, i8* nonnull %5) #6
  ret i32 0
}

; Function Attrs: argmemonly mustprogress nofree nosync nounwind willreturn
declare void @llvm.lifetime.start.p0i8(i64 immarg, i8* nocapture) #1

; Function Attrs: nofree nounwind
declare noundef i32 @__isoc99_scanf(i8* nocapture noundef readonly, ...) local_unnamed_addr #2

; Function Attrs: argmemonly mustprogress nofree nounwind readonly willreturn
declare i64 @strlen(i8* nocapture) local_unnamed_addr #3

; Function Attrs: argmemonly mustprogress nofree nounwind willreturn
declare i8* @strcpy(i8* noalias returned writeonly, i8* noalias nocapture readonly) local_unnamed_addr #4

; Function Attrs: argmemonly mustprogress nofree nounwind readonly willreturn
declare i32 @strcmp(i8* nocapture, i8* nocapture) local_unnamed_addr #3

; Function Attrs: nofree nounwind
declare noundef i32 @printf(i8* nocapture noundef readonly, ...) local_unnamed_addr #2

; Function Attrs: argmemonly mustprogress nofree nosync nounwind willreturn
declare void @llvm.lifetime.end.p0i8(i64 immarg, i8* nocapture) #1

; Function Attrs: argmemonly nofree nounwind willreturn
declare void @llvm.memcpy.p0i8.p0i8.i64(i8* noalias nocapture writeonly, i8* noalias nocapture readonly, i64, i1 immarg) #5


!llvm.module.flags = !{!0, !1, !2, !3}
!llvm.ident = !{!4}

!0 = !{i32 1, !"wchar_size", i32 4}
!1 = !{i32 7, !"PIC Level", i32 2}
!2 = !{i32 7, !"PIE Level", i32 2}
!3 = !{i32 7, !"uwtable", i32 1}
!4 = !{!"clang version 13.0.0"}
!5 = distinct !{!5, !6}
!6 = !{!"llvm.loop.mustprogress"}
